target datalayout = "e-m:e-p270:32:32-p271:32:32-p272:64:64-i64:64-i128:128-f80:128-n8:16:32:64-S128"
target triple = "x86_64-pc-linux-gnu"

%"class.icu_77::UObject" = type { ptr }
%"class.icu_77::LocalPointer.1" = type { %"class.icu_77::LocalPointerBase.2" }
%"class.icu_77::LocalPointerBase.2" = type { ptr }
%"class.icu_77::LocalPointer" = type { %"class.icu_77::LocalPointerBase" }
%"class.icu_77::LocalPointerBase" = type { ptr }
%"class.icu_77::UVector" = type { %"class.icu_77::UObject", i32, i32, ptr, ptr, ptr }

; Function Attrs: mustprogress nounwind uwtable
define linkonce_odr void @_ZN6icu_7716LocalPointerBaseINS_12TimeZoneRuleEED2Ev(ptr noundef nonnull align 8 dereferenceable(8) %0) unnamed_addr #0 comdat align 2 {
  %2 = alloca ptr, align 8
  store ptr %0, ptr %2, align 8, !tbaa !72
  ret void
}

; Function Attrs: mustprogress nounwind uwtable
define linkonce_odr void @_ZN6icu_7716LocalPointerBaseINS_12TimeZoneRuleEEC2EPS1_(ptr noundef nonnull align 8 dereferenceable(8) %0, ptr noundef %1) unnamed_addr #0 comdat align 2 {
  %3 = alloca ptr, align 8
  %4 = alloca ptr, align 8
  store ptr %0, ptr %3, align 8, !tbaa !72
  store ptr %1, ptr %4, align 8, !tbaa !34
  %5 = load ptr, ptr %3, align 8
  %6 = getelementptr inbounds nuw %"class.icu_77::LocalPointerBase", ptr %5, i32 0, i32 0
  %7 = load ptr, ptr %4, align 8, !tbaa !34
  store ptr %7, ptr %6, align 8, !tbaa !74
  ret void
}

; Function Attrs: mustprogress nounwind uwtable
define linkonce_odr void @_ZN6icu_7716LocalPointerBaseINS_7UVectorEED2Ev(ptr noundef nonnull align 8 dereferenceable(8) %0) unnamed_addr #0 comdat align 2 {
  %2 = alloca ptr, align 8
  store ptr %0, ptr %2, align 8, !tbaa !65
  ret void
}

; Function Attrs: inlinehint mustprogress nounwind uwtable
define internal noundef signext i8 @_ZL9U_SUCCESS10UErrorCode(i32 noundef %0) #6 {
  %2 = alloca i32, align 4
  store i32 %0, ptr %2, align 4, !tbaa !26
  %3 = load i32, ptr %2, align 4, !tbaa !26
  %4 = icmp sle i32 %3, 0
  %5 = zext i1 %4 to i8
  ret i8 %5
}

; Function Attrs: mustprogress nounwind uwtable
define linkonce_odr void @_ZN6icu_7716LocalPointerBaseINS_7UVectorEEC2EPS1_(ptr noundef nonnull align 8 dereferenceable(8) %0, ptr noundef %1) unnamed_addr #0 comdat align 2 {
  %3 = alloca ptr, align 8
  %4 = alloca ptr, align 8
  store ptr %0, ptr %3, align 8, !tbaa !65
  store ptr %1, ptr %4, align 8, !tbaa !28
  %5 = load ptr, ptr %3, align 8
  %6 = getelementptr inbounds nuw %"class.icu_77::LocalPointerBase.2", ptr %5, i32 0, i32 0
  %7 = load ptr, ptr %4, align 8, !tbaa !28
  store ptr %7, ptr %6, align 8, !tbaa !67
  ret void
}

; Function Attrs: mustprogress nounwind uwtable
define linkonce_odr void @_ZN6icu_7712LocalPointerINS_7UVectorEED2Ev(ptr noundef nonnull align 8 dereferenceable(8) %0) unnamed_addr #0 comdat align 2 {
  %2 = alloca ptr, align 8
  store ptr %0, ptr %2, align 8, !tbaa !63
  %3 = load ptr, ptr %2, align 8
  %4 = getelementptr inbounds nuw %"class.icu_77::LocalPointerBase.2", ptr %3, i32 0, i32 0
  %5 = load ptr, ptr %4, align 8, !tbaa !67
  %6 = icmp eq ptr %5, null
  br i1 %6, label %11, label %7

7:                                                ; preds = %1
  %8 = load ptr, ptr %5, align 8, !tbaa !12
  %9 = getelementptr inbounds ptr, ptr %8, i64 1
  %10 = load ptr, ptr %9, align 8
  call void %10(ptr noundef nonnull align 8 dereferenceable(40) %5) #12
  br label %11

11:                                               ; preds = %7, %1
  call void @_ZN6icu_7716LocalPointerBaseINS_7UVectorEED2Ev(ptr noundef nonnull align 8 dereferenceable(8) %3) #12
  ret void
}

; Function Attrs: mustprogress nounwind uwtable
define linkonce_odr noundef ptr @_ZN6icu_7716LocalPointerBaseINS_7UVectorEE6orphanEv(ptr noundef nonnull align 8 dereferenceable(8) %0) #0 comdat align 2 {
  %2 = alloca ptr, align 8
  %3 = alloca ptr, align 8
  store ptr %0, ptr %2, align 8, !tbaa !65
  %4 = load ptr, ptr %2, align 8
  call void @llvm.lifetime.start.p0(i64 8, ptr %3) #12
  %5 = getelementptr inbounds nuw %"class.icu_77::LocalPointerBase.2", ptr %4, i32 0, i32 0
  %6 = load ptr, ptr %5, align 8, !tbaa !67
  store ptr %6, ptr %3, align 8, !tbaa !28
  %7 = getelementptr inbounds nuw %"class.icu_77::LocalPointerBase.2", ptr %4, i32 0, i32 0
  store ptr null, ptr %7, align 8, !tbaa !67
  %8 = load ptr, ptr %3, align 8, !tbaa !28
  call void @llvm.lifetime.end.p0(i64 8, ptr %3) #12
  ret ptr %8
}

; Function Attrs: mustprogress nounwind uwtable
define linkonce_odr void @_ZN6icu_7712LocalPointerINS_12TimeZoneRuleEED2Ev(ptr noundef nonnull align 8 dereferenceable(8) %0) unnamed_addr #0 comdat align 2 {
  %2 = alloca ptr, align 8
  store ptr %0, ptr %2, align 8, !tbaa !61
  %3 = load ptr, ptr %2, align 8
  %4 = getelementptr inbounds nuw %"class.icu_77::LocalPointerBase", ptr %3, i32 0, i32 0
  %5 = load ptr, ptr %4, align 8, !tbaa !74
  %6 = icmp eq ptr %5, null
  br i1 %6, label %11, label %7

7:                                                ; preds = %1
  %8 = load ptr, ptr %5, align 8, !tbaa !12
  %9 = getelementptr inbounds ptr, ptr %8, i64 1
  %10 = load ptr, ptr %9, align 8
  call void %10(ptr noundef nonnull align 8 dereferenceable(80) %5) #12
  br label %11

11:                                               ; preds = %7, %1
  call void @_ZN6icu_7716LocalPointerBaseINS_12TimeZoneRuleEED2Ev(ptr noundef nonnull align 8 dereferenceable(8) %3) #12
  ret void
}

; Function Attrs: mustprogress nounwind uwtable
define linkonce_odr noundef ptr @_ZN6icu_7716LocalPointerBaseINS_12TimeZoneRuleEE6orphanEv(ptr noundef nonnull align 8 dereferenceable(8) %0) #0 comdat align 2 {
  %2 = alloca ptr, align 8
  %3 = alloca ptr, align 8
  store ptr %0, ptr %2, align 8, !tbaa !72
  %4 = load ptr, ptr %2, align 8
  call void @llvm.lifetime.start.p0(i64 8, ptr %3) #12
  %5 = getelementptr inbounds nuw %"class.icu_77::LocalPointerBase", ptr %4, i32 0, i32 0
  %6 = load ptr, ptr %5, align 8, !tbaa !74
  store ptr %6, ptr %3, align 8, !tbaa !34
  %7 = getelementptr inbounds nuw %"class.icu_77::LocalPointerBase", ptr %4, i32 0, i32 0
  store ptr null, ptr %7, align 8, !tbaa !74
  %8 = load ptr, ptr %3, align 8, !tbaa !34
  call void @llvm.lifetime.end.p0(i64 8, ptr %3) #12
  ret ptr %8
}

; Function Attrs: mustprogress nounwind uwtable
define linkonce_odr noundef ptr @_ZNK6icu_7716LocalPointerBaseINS_7UVectorEEptEv(ptr noundef nonnull align 8 dereferenceable(8) %0) #0 comdat align 2 {
  %2 = alloca ptr, align 8
  store ptr %0, ptr %2, align 8, !tbaa !65
  %3 = load ptr, ptr %2, align 8
  %4 = getelementptr inbounds nuw %"class.icu_77::LocalPointerBase.2", ptr %3, i32 0, i32 0
  %5 = load ptr, ptr %4, align 8, !tbaa !67
  ret ptr %5
}

; Function Attrs: mustprogress nounwind uwtable
define linkonce_odr void @_ZN6icu_7712LocalPointerINS_12TimeZoneRuleEEC2EPS1_R10UErrorCode(ptr noundef nonnull align 8 dereferenceable(8) %0, ptr noundef %1, ptr noundef nonnull align 4 dereferenceable(4) %2) unnamed_addr #0 comdat align 2 {
  %4 = alloca ptr, align 8
  %5 = alloca ptr, align 8
  %6 = alloca ptr, align 8
  store ptr %0, ptr %4, align 8, !tbaa !61
  store ptr %1, ptr %5, align 8, !tbaa !34
  store ptr %2, ptr %6, align 8, !tbaa !33
  %7 = load ptr, ptr %4, align 8
  %8 = load ptr, ptr %5, align 8, !tbaa !34
  call void @_ZN6icu_7716LocalPointerBaseINS_12TimeZoneRuleEEC2EPS1_(ptr noundef nonnull align 8 dereferenceable(8) %7, ptr noundef %8)
  %9 = load ptr, ptr %5, align 8, !tbaa !34
  %10 = icmp eq ptr %9, null
  br i1 %10, label %11, label %18

11:                                               ; preds = %3
  %12 = load ptr, ptr %6, align 8, !tbaa !33
  %13 = load i32, ptr %12, align 4, !tbaa !26
  %14 = call noundef signext i8 @_ZL9U_SUCCESS10UErrorCode(i32 noundef %13)
  %15 = icmp ne i8 %14, 0
  br i1 %15, label %16, label %18

16:                                               ; preds = %11
  %17 = load ptr, ptr %6, align 8, !tbaa !33
  store i32 7, ptr %17, align 4, !tbaa !26
  br label %18

18:                                               ; preds = %16, %11, %3
  ret void
}

; Function Attrs: inlinehint mustprogress nounwind uwtable
define internal noundef signext i8 @_ZL9U_FAILURE10UErrorCode(i32 noundef %0) #6 {
  %2 = alloca i32, align 4
  store i32 %0, ptr %2, align 4, !tbaa !26
  %3 = load i32, ptr %2, align 4, !tbaa !26
  %4 = icmp sgt i32 %3, 0
  %5 = zext i1 %4 to i8
  ret i8 %5
}

; Function Attrs: mustprogress uwtable
define linkonce_odr void @_ZN6icu_7712LocalPointerINS_7UVectorEEC2EPS1_R10UErrorCode(ptr noundef nonnull align 8 dereferenceable(8) %0, ptr noundef %1, ptr noundef nonnull align 4 dereferenceable(4) %2) unnamed_addr #1 comdat align 2 personality ptr @__gxx_personality_v0 {
  %4 = alloca ptr, align 8
  %5 = alloca ptr, align 8
  %6 = alloca ptr, align 8
  %7 = alloca ptr, align 8
  %8 = alloca i32, align 4
  store ptr %0, ptr %4, align 8, !tbaa !63
  store ptr %1, ptr %5, align 8, !tbaa !28
  store ptr %2, ptr %6, align 8, !tbaa !33
  %9 = load ptr, ptr %4, align 8
  %10 = load ptr, ptr %5, align 8, !tbaa !28
  call void @_ZN6icu_7716LocalPointerBaseINS_7UVectorEEC2EPS1_(ptr noundef nonnull align 8 dereferenceable(8) %9, ptr noundef %10)
  %11 = load ptr, ptr %5, align 8, !tbaa !28
  %12 = icmp eq ptr %11, null
  br i1 %12, label %13, label %25

13:                                               ; preds = %3
  %14 = load ptr, ptr %6, align 8, !tbaa !33
  %15 = load i32, ptr %14, align 4, !tbaa !26
  %16 = invoke noundef signext i8 @_ZL9U_SUCCESS10UErrorCode(i32 noundef %15)
          to label %17 unwind label %21

17:                                               ; preds = %13
  %18 = icmp ne i8 %16, 0
  br i1 %18, label %19, label %25

19:                                               ; preds = %17
  %20 = load ptr, ptr %6, align 8, !tbaa !33
  store i32 7, ptr %20, align 4, !tbaa !26
  br label %25

21:                                               ; preds = %13
  %22 = landingpad { ptr, i32 }
          cleanup
  %23 = extractvalue { ptr, i32 } %22, 0
  store ptr %23, ptr %7, align 8
  %24 = extractvalue { ptr, i32 } %22, 1
  store i32 %24, ptr %8, align 4
  call void @_ZN6icu_7716LocalPointerBaseINS_7UVectorEED2Ev(ptr noundef nonnull align 8 dereferenceable(8) %9) #12
  br label %26

25:                                               ; preds = %19, %17, %3
  ret void

26:                                               ; preds = %21
  %27 = load ptr, ptr %7, align 8
  %28 = load i32, ptr %8, align 4
  %29 = insertvalue { ptr, i32 } poison, ptr %27, 0
  %30 = insertvalue { ptr, i32 } %29, i32 %28, 1
  resume { ptr, i32 } %30
}

; Function Attrs: inlinehint mustprogress nounwind uwtable
define linkonce_odr noundef i32 @_ZNK6icu_777UVector4sizeEv(ptr noundef nonnull align 8 dereferenceable(40) %0) #6 comdat align 2 {
  %2 = alloca ptr, align 8
  store ptr %0, ptr %2, align 8, !tbaa !28
  %3 = load ptr, ptr %2, align 8
  %4 = getelementptr inbounds nuw %"class.icu_77::UVector", ptr %3, i32 0, i32 1
  %5 = load i32, ptr %4, align 8, !tbaa !69
  ret i32 %5
}

; Function Attrs: mustprogress uwtable
define noundef ptr @_ZN6icu_7717RuleBasedTimeZone9copyRulesEPNS_7UVectorE(ptr noundef nonnull align 8 dereferenceable(105) %0, ptr noundef %1) #1 align 2 personality ptr @__gxx_personality_v0 {
  %3 = alloca ptr, align 8
  %4 = alloca ptr, align 8
  %5 = alloca ptr, align 8
  %6 = alloca i32, align 4
  %7 = alloca i32, align 4
  %8 = alloca %"class.icu_77::LocalPointer.1", align 8
  %9 = alloca ptr, align 8
  %10 = alloca i1, align 1
  %11 = alloca ptr, align 8
  %12 = alloca i32, align 4
  %13 = alloca i32, align 4
  %14 = alloca i32, align 4
  %15 = alloca %"class.icu_77::LocalPointer", align 8
  store ptr %0, ptr %4, align 8, !tbaa !3
  store ptr %1, ptr %5, align 8, !tbaa !28
  %16 = load ptr, ptr %5, align 8, !tbaa !28
  %17 = icmp eq ptr %16, null
  br i1 %17, label %18, label %19

18:                                               ; preds = %2
  store ptr null, ptr %3, align 8
  br label %100

19:                                               ; preds = %2
  call void @llvm.lifetime.start.p0(i64 4, ptr %6) #12
  store i32 0, ptr %6, align 4, !tbaa !26
  call void @llvm.lifetime.start.p0(i64 4, ptr %7) #12
  %20 = load ptr, ptr %5, align 8, !tbaa !28
  %21 = call noundef i32 @_ZNK6icu_777UVector4sizeEv(ptr noundef nonnull align 8 dereferenceable(40) %20)
  store i32 %21, ptr %7, align 4, !tbaa !29
  call void @llvm.lifetime.start.p0(i64 8, ptr %8) #12
  %22 = call noundef ptr @_ZN6icu_777UMemorynwEm(i64 noundef 40) #12
  %23 = icmp eq ptr %22, null
  store i1 false, ptr %10, align 1
  br i1 %23, label %27, label %24

24:                                               ; preds = %19
  store ptr %22, ptr %9, align 8
  store i1 true, ptr %10, align 1
  %25 = load i32, ptr %7, align 4, !tbaa !29
  invoke void @_ZN6icu_777UVectorC1EPFvPvEPFa8UElementS4_EiR10UErrorCode(ptr noundef nonnull align 8 dereferenceable(40) %22, ptr noundef @uprv_deleteUObject_77, ptr noundef null, i32 noundef %25, ptr noundef nonnull align 4 dereferenceable(4) %6)
          to label %26 unwind label %34

26:                                               ; preds = %24
  br label %27

27:                                               ; preds = %26, %19
  %28 = phi ptr [ %22, %26 ], [ null, %19 ]
  call void @_ZN6icu_7712LocalPointerINS_7UVectorEEC2EPS1_R10UErrorCode(ptr noundef nonnull align 8 dereferenceable(8) %8, ptr noundef %28, ptr noundef nonnull align 4 dereferenceable(4) %6)
  %29 = load i32, ptr %6, align 4, !tbaa !26
  %30 = invoke noundef signext i8 @_ZL9U_FAILURE10UErrorCode(i32 noundef %29)
          to label %31 unwind label %42

31:                                               ; preds = %27
  %32 = icmp ne i8 %30, 0
  br i1 %32, label %33, label %46

33:                                               ; preds = %31
  store ptr null, ptr %3, align 8
  store i32 1, ptr %13, align 4
  br label %97

34:                                               ; preds = %24
  %35 = landingpad { ptr, i32 }
          cleanup
  %36 = extractvalue { ptr, i32 } %35, 0
  store ptr %36, ptr %11, align 8
  %37 = extractvalue { ptr, i32 } %35, 1
  store i32 %37, ptr %12, align 4
  %38 = load i1, ptr %10, align 1
  br i1 %38, label %39, label %41

39:                                               ; preds = %34
  %40 = load ptr, ptr %9, align 8
  call void @_ZN6icu_777UMemorydlEPv(ptr noundef %40) #12
  br label %41

41:                                               ; preds = %39, %34
  br label %99

42:                                               ; preds = %27
  %43 = landingpad { ptr, i32 }
          cleanup
  %44 = extractvalue { ptr, i32 } %43, 0
  store ptr %44, ptr %11, align 8
  %45 = extractvalue { ptr, i32 } %43, 1
  store i32 %45, ptr %12, align 4
  br label %98

46:                                               ; preds = %31
  call void @llvm.lifetime.start.p0(i64 4, ptr %14) #12
  store i32 0, ptr %14, align 4, !tbaa !29
  br label %47

47:                                               ; preds = %84, %46
  %48 = load i32, ptr %14, align 4, !tbaa !29
  %49 = load i32, ptr %7, align 4, !tbaa !29
  %50 = icmp slt i32 %48, %49
  br i1 %50, label %51, label %88

51:                                               ; preds = %47
  call void @llvm.lifetime.start.p0(i64 8, ptr %15) #12
  %52 = load ptr, ptr %5, align 8, !tbaa !28
  %53 = load i32, ptr %14, align 4, !tbaa !29
  %54 = invoke noundef ptr @_ZNK6icu_777UVector9elementAtEi(ptr noundef nonnull align 8 dereferenceable(40) %52, i32 noundef %53)
          to label %55 unwind label %72

55:                                               ; preds = %51
  %56 = load ptr, ptr %54, align 8, !tbaa !12
  %57 = getelementptr inbounds ptr, ptr %56, i64 3
  %58 = load ptr, ptr %57, align 8
  %59 = invoke noundef ptr %58(ptr noundef nonnull align 8 dereferenceable(80) %54)
          to label %60 unwind label %72

60:                                               ; preds = %55
  invoke void @_ZN6icu_7712LocalPointerINS_12TimeZoneRuleEEC2EPS1_R10UErrorCode(ptr noundef nonnull align 8 dereferenceable(8) %15, ptr noundef %59, ptr noundef nonnull align 4 dereferenceable(4) %6)
          to label %61 unwind label %72

61:                                               ; preds = %60
  %62 = invoke noundef ptr @_ZNK6icu_7716LocalPointerBaseINS_7UVectorEEptEv(ptr noundef nonnull align 8 dereferenceable(8) %8)
          to label %63 unwind label %76

63:                                               ; preds = %61
  %64 = invoke noundef ptr @_ZN6icu_7716LocalPointerBaseINS_12TimeZoneRuleEE6orphanEv(ptr noundef nonnull align 8 dereferenceable(8) %15)
          to label %65 unwind label %76

65:                                               ; preds = %63
  invoke void @_ZN6icu_777UVector12adoptElementEPvR10UErrorCode(ptr noundef nonnull align 8 dereferenceable(40) %62, ptr noundef %64, ptr noundef nonnull align 4 dereferenceable(4) %6)
          to label %66 unwind label %76

66:                                               ; preds = %65
  %67 = load i32, ptr %6, align 4, !tbaa !26
  %68 = invoke noundef signext i8 @_ZL9U_FAILURE10UErrorCode(i32 noundef %67)
          to label %69 unwind label %76

69:                                               ; preds = %66
  %70 = icmp ne i8 %68, 0
  br i1 %70, label %71, label %80

71:                                               ; preds = %69
  store ptr null, ptr %3, align 8
  store i32 1, ptr %13, align 4
  br label %81

72:                                               ; preds = %60, %55, %51
  %73 = landingpad { ptr, i32 }
          cleanup
  %74 = extractvalue { ptr, i32 } %73, 0
  store ptr %74, ptr %11, align 8
  %75 = extractvalue { ptr, i32 } %73, 1
  store i32 %75, ptr %12, align 4
  br label %87

76:                                               ; preds = %66, %65, %63, %61
  %77 = landingpad { ptr, i32 }
          cleanup
  %78 = extractvalue { ptr, i32 } %77, 0
  store ptr %78, ptr %11, align 8
  %79 = extractvalue { ptr, i32 } %77, 1
  store i32 %79, ptr %12, align 4
  call void @_ZN6icu_7712LocalPointerINS_12TimeZoneRuleEED2Ev(ptr noundef nonnull align 8 dereferenceable(8) %15) #12
  br label %87

80:                                               ; preds = %69
  store i32 0, ptr %13, align 4
  br label %81

81:                                               ; preds = %80, %71
  call void @_ZN6icu_7712LocalPointerINS_12TimeZoneRuleEED2Ev(ptr noundef nonnull align 8 dereferenceable(8) %15) #12
  call void @llvm.lifetime.end.p0(i64 8, ptr %15) #12
  %82 = load i32, ptr %13, align 4
  switch i32 %82, label %95 [
    i32 0, label %83
  ]

83:                                               ; preds = %81
  br label %84

84:                                               ; preds = %83
  %85 = load i32, ptr %14, align 4, !tbaa !29
  %86 = add nsw i32 %85, 1
  store i32 %86, ptr %14, align 4, !tbaa !29
  br label %47, !llvm.loop !31

87:                                               ; preds = %76, %72
  call void @llvm.lifetime.end.p0(i64 8, ptr %15) #12
  br label %96

88:                                               ; preds = %47
  %89 = invoke noundef ptr @_ZN6icu_7716LocalPointerBaseINS_7UVectorEE6orphanEv(ptr noundef nonnull align 8 dereferenceable(8) %8)
          to label %90 unwind label %91

90:                                               ; preds = %88
  store ptr %89, ptr %3, align 8
  store i32 1, ptr %13, align 4
  br label %95

91:                                               ; preds = %88
  %92 = landingpad { ptr, i32 }
          cleanup
  %93 = extractvalue { ptr, i32 } %92, 0
  store ptr %93, ptr %11, align 8
  %94 = extractvalue { ptr, i32 } %92, 1
  store i32 %94, ptr %12, align 4
  br label %96

95:                                               ; preds = %90, %81
  call void @llvm.lifetime.end.p0(i64 4, ptr %14) #12
  br label %97

96:                                               ; preds = %91, %87
  call void @llvm.lifetime.end.p0(i64 4, ptr %14) #12
  br label %98

97:                                               ; preds = %95, %33
  call void @_ZN6icu_7712LocalPointerINS_7UVectorEED2Ev(ptr noundef nonnull align 8 dereferenceable(8) %8) #12
  call void @llvm.lifetime.end.p0(i64 8, ptr %8) #12
  call void @llvm.lifetime.end.p0(i64 4, ptr %7) #12
  call void @llvm.lifetime.end.p0(i64 4, ptr %6) #12
  br label %100

98:                                               ; preds = %96, %42
  call void @_ZN6icu_7712LocalPointerINS_7UVectorEED2Ev(ptr noundef nonnull align 8 dereferenceable(8) %8) #12
  br label %99

99:                                               ; preds = %98, %41
  call void @llvm.lifetime.end.p0(i64 8, ptr %8) #12
  call void @llvm.lifetime.end.p0(i64 4, ptr %7) #12
  call void @llvm.lifetime.end.p0(i64 4, ptr %6) #12
  br label %102

100:                                              ; preds = %97, %18
  %101 = load ptr, ptr %3, align 8
  ret ptr %101

102:                                              ; preds = %99
  %103 = load ptr, ptr %11, align 8
  %104 = load i32, ptr %12, align 4
  %105 = insertvalue { ptr, i32 } poison, ptr %103, 0
  %106 = insertvalue { ptr, i32 } %105, i32 %104, 1
  resume { ptr, i32 } %106
}