; Function Attrs: mustprogress uwtable
define noundef ptr @_ZN6icu_7717RuleBasedTimeZone9copyRulesEPNS_7UVectorE(ptr nonnull readnone align 8 captures(none) %0, ptr noundef %1) local_unnamed_addr #1 align 2 personality ptr @__gxx_personality_v0 {
  %3 = alloca i32, align 4
  %4 = icmp eq ptr %1, null
  br i1 %4, label %41, label %5

5:                                                ; preds = %2
  call void @llvm.lifetime.start.p0(i64 4, ptr nonnull %3) #14
  store i32 0, ptr %3, align 4, !tbaa !21
  %6 = getelementptr inbounds nuw i8, ptr %1, i64 8
  %7 = load i32, ptr %6, align 8, !tbaa !23
  %8 = tail call noundef ptr @_ZN6icu_777UMemorynwEm(i64 noundef 40) #14
  %9 = icmp eq ptr %8, null
  br i1 %9, label %_ZN6icu_7712LocalPointerINS_7UVectorEED2Ev.exit26, label %10

10:                                               ; preds = %5
  invoke void @_ZN6icu_777UVectorC1EPFvPvEPFa8UElementS4_EiR10UErrorCode(ptr noundef nonnull align 8 dereferenceable(40) %8, ptr noundef nonnull @uprv_deleteUObject_77, ptr noundef null, i32 noundef %7, ptr noundef nonnull align 4 dereferenceable(4) %3)
          to label %_ZN6icu_7712LocalPointerINS_7UVectorEEC2EPS1_R10UErrorCode.exit unwind label %13

_ZN6icu_7712LocalPointerINS_7UVectorEEC2EPS1_R10UErrorCode.exit: ; preds = %10
  %.pre = load i32, ptr %3, align 4, !tbaa !21
  %11 = icmp slt i32 %.pre, 1
  br i1 %11, label %.preheader, label %.thread42

.preheader:                                       ; preds = %_ZN6icu_7712LocalPointerINS_7UVectorEEC2EPS1_R10UErrorCode.exit
  %12 = icmp sgt i32 %7, 0
  br i1 %12, label %.lr.ph, label %_ZN6icu_7712LocalPointerINS_7UVectorEED2Ev.exit26

13:                                               ; preds = %10
  %14 = landingpad { ptr, i32 }
          cleanup
  call void @_ZN6icu_777UMemorydlEPv(ptr noundef nonnull %8) #14
  br label %_ZN6icu_7712LocalPointerINS_7UVectorEED2Ev.exit

15:                                               ; preds = %_ZN6icu_7712LocalPointerINS_12TimeZoneRuleEED2Ev.exit
  %16 = add nuw nsw i32 %.047, 1
  %exitcond.not = icmp eq i32 %16, %7
  br i1 %exitcond.not, label %_ZN6icu_7712LocalPointerINS_7UVectorEED2Ev.exit26, label %.lr.ph, !llvm.loop !27

.lr.ph:                                           ; preds = %.preheader, %15
  %.047 = phi i32 [ %16, %15 ], [ 0, %.preheader ]
  %17 = invoke noundef ptr @_ZNK6icu_777UVector9elementAtEi(ptr noundef nonnull align 8 dereferenceable(40) %1, i32 noundef %.047)
          to label %19 unwind label %.thread

.thread:                                          ; preds = %.lr.ph
  %18 = landingpad { ptr, i32 }
          cleanup
  br label %34

19:                                               ; preds = %.lr.ph
  %20 = load ptr, ptr %17, align 8, !tbaa !3
  %21 = getelementptr inbounds nuw i8, ptr %20, i64 24
  %22 = load ptr, ptr %21, align 8
  %23 = invoke noundef ptr %22(ptr noundef nonnull align 8 dereferenceable(80) %17)
          to label %24 unwind label %32

24:                                               ; preds = %19
  %25 = icmp ne ptr %23, null
  %26 = load i32, ptr %3, align 4
  %27 = icmp sgt i32 %26, 0
  %or.cond.i24 = select i1 %25, i1 true, i1 %27
  br i1 %or.cond.i24, label %_ZN6icu_7712LocalPointerINS_12TimeZoneRuleEEC2EPS1_R10UErrorCode.exit, label %28

28:                                               ; preds = %24
  store i32 7, ptr %3, align 4, !tbaa !21
  br label %_ZN6icu_7712LocalPointerINS_12TimeZoneRuleEEC2EPS1_R10UErrorCode.exit

_ZN6icu_7712LocalPointerINS_12TimeZoneRuleEEC2EPS1_R10UErrorCode.exit: ; preds = %24, %28
  invoke void @_ZN6icu_777UVector12adoptElementEPvR10UErrorCode(ptr noundef nonnull align 8 dereferenceable(40) %8, ptr noundef %23, ptr noundef nonnull align 4 dereferenceable(4) %3)
          to label %_ZN6icu_7712LocalPointerINS_12TimeZoneRuleEED2Ev.exit unwind label %.thread34

_ZN6icu_7712LocalPointerINS_12TimeZoneRuleEED2Ev.exit: ; preds = %_ZN6icu_7712LocalPointerINS_12TimeZoneRuleEEC2EPS1_R10UErrorCode.exit
  %29 = load i32, ptr %3, align 4, !tbaa !21
  %30 = icmp slt i32 %29, 1
  br i1 %30, label %15, label %.thread42

.thread34:                                        ; preds = %_ZN6icu_7712LocalPointerINS_12TimeZoneRuleEEC2EPS1_R10UErrorCode.exit
  %31 = landingpad { ptr, i32 }
          cleanup
  br label %34

32:                                               ; preds = %19
  %33 = landingpad { ptr, i32 }
          cleanup
  br label %34

34:                                               ; preds = %32, %.thread, %.thread34
  %.pn36 = phi { ptr, i32 } [ %31, %.thread34 ], [ %33, %32 ], [ %18, %.thread ]
  %35 = load ptr, ptr %8, align 8, !tbaa !3
  %36 = getelementptr inbounds nuw i8, ptr %35, i64 8
  %37 = load ptr, ptr %36, align 8
  call void %37(ptr noundef nonnull align 8 dereferenceable(40) %8) #14
  br label %_ZN6icu_7712LocalPointerINS_7UVectorEED2Ev.exit

.thread42:                                        ; preds = %_ZN6icu_7712LocalPointerINS_12TimeZoneRuleEED2Ev.exit, %_ZN6icu_7712LocalPointerINS_7UVectorEEC2EPS1_R10UErrorCode.exit
  %38 = load ptr, ptr %8, align 8, !tbaa !3
  %39 = getelementptr inbounds nuw i8, ptr %38, i64 8
  %40 = load ptr, ptr %39, align 8
  call void %40(ptr noundef nonnull align 8 dereferenceable(40) %8) #14
  br label %_ZN6icu_7712LocalPointerINS_7UVectorEED2Ev.exit26

_ZN6icu_7712LocalPointerINS_7UVectorEED2Ev.exit26: ; preds = %15, %5, %.preheader, %.thread42
  %.11841 = phi ptr [ null, %.thread42 ], [ %8, %.preheader ], [ null, %5 ], [ %8, %15 ]
  call void @llvm.lifetime.end.p0(i64 4, ptr nonnull %3) #14
  br label %41

_ZN6icu_7712LocalPointerINS_7UVectorEED2Ev.exit:  ; preds = %34, %13
  %.pn.pn = phi { ptr, i32 } [ %14, %13 ], [ %.pn36, %34 ]
  call void @llvm.lifetime.end.p0(i64 4, ptr nonnull %3) #14
  resume { ptr, i32 } %.pn.pn

41:                                               ; preds = %2, %_ZN6icu_7712LocalPointerINS_7UVectorEED2Ev.exit26
  %.017 = phi ptr [ %.11841, %_ZN6icu_7712LocalPointerINS_7UVectorEED2Ev.exit26 ], [ null, %2 ]
  ret ptr %.017
}